; Function Attrs: inlinehint mustprogress nounwind uwtable
define internal fastcc void @"_ZZN4pbrt10BasicScene9AddMediumENS_22TransformedSceneEntityEEN3$_0D2Ev"(ptr noundef nonnull align 8 captures(none) dereferenceable(848) initializes((120, 128)) %0) unnamed_addr #4 align 2 personality ptr @__gxx_personality_v0 {
  %2 = getelementptr inbounds nuw i8, ptr %0, i64 120
  store i64 0, ptr %2, align 8, !tbaa !65
  %3 = getelementptr inbounds nuw i8, ptr %0, i64 40
  %4 = load ptr, ptr %3, align 8, !tbaa !54
  %.not.i.i.i.i.i.i = icmp eq ptr %4, null
  br i1 %.not.i.i.i.i.i.i, label %_ZN4pbrt11SceneEntityD2Ev.exit, label %5

5:                                                ; preds = %1
  %6 = getelementptr inbounds nuw i8, ptr %0, i64 32
  %7 = getelementptr inbounds nuw i8, ptr %0, i64 112
  %8 = load i64, ptr %7, align 8, !tbaa !66
  %9 = shl i64 %8, 3
  %10 = load ptr, ptr %6, align 8, !tbaa !67
  %11 = load ptr, ptr %10, align 8, !tbaa !17
  %12 = getelementptr inbounds nuw i8, ptr %11, i64 24
  %13 = load ptr, ptr %12, align 8
  invoke void %13(ptr noundef nonnull align 8 dereferenceable(8) %10, ptr noundef nonnull %4, i64 noundef %9, i64 noundef 8)
          to label %_ZN4pbrt11SceneEntityD2Ev.exit unwind label %14

14:                                               ; preds = %5
  %15 = landingpad { ptr, i32 }
          catch ptr null
  %16 = extractvalue { ptr, i32 } %15, 0
  tail call void @__clang_call_terminate(ptr %16) #34
  unreachable

_ZN4pbrt11SceneEntityD2Ev.exit:                   ; preds = %1, %5
  ret void
}